target datalayout = "e-m:e-p270:32:32-p271:32:32-p272:64:64-i64:64-i128:128-f80:128-n8:16:32:64-S128"
target triple = "x86_64-pc-linux-gnu"

%"class.std::shared_ptr" = type { %"class.std::__shared_ptr" }
%"class.std::__shared_ptr" = type { ptr, %"class.std::__shared_count" }
%"class.std::__shared_count" = type { ptr }
%"class.std::shared_ptr.4" = type { %"class.std::__shared_ptr.5" }
%"class.std::__shared_ptr.5" = type { ptr, %"class.std::__shared_count" }
%"class.open3d::geometry::Image" = type { %"class.open3d::geometry::Geometry2D", i32, i32, i32, i32, %"class.std::vector" }
%"class.open3d::geometry::Geometry2D" = type { %"class.open3d::geometry::Geometry" }
%"class.open3d::geometry::Geometry" = type { ptr, i32, i32, %"class.std::__cxx11::basic_string" }
%"class.std::__cxx11::basic_string" = type { %"struct.std::__cxx11::basic_string<char>::_Alloc_hider", i64, %union.anon }
%"struct.std::__cxx11::basic_string<char>::_Alloc_hider" = type { ptr }
%union.anon = type { i64, [8 x i8] }
%"class.std::vector" = type { %"struct.std::_Vector_base" }
%"struct.std::_Vector_base" = type { %"struct.std::_Vector_base<unsigned char, std::allocator<unsigned char>>::_Vector_impl" }
%"struct.std::_Vector_base<unsigned char, std::allocator<unsigned char>>::_Vector_impl" = type { %"struct.std::_Vector_base<unsigned char, std::allocator<unsigned char>>::_Vector_impl_data" }
%"struct.std::_Vector_base<unsigned char, std::allocator<unsigned char>>::_Vector_impl_data" = type { ptr, ptr, ptr }

@.str = private unnamed_addr constant [133 x i8] c"generated/home/dtcxzyw/WorkSpace/Projects/compilers/llvm-opt-benchmark/bench/open3d/Open3D/cpp/open3d/geometry/PointCloudFactory.cpp\00", align 1
@.str.3 = private unnamed_addr constant [26 x i8] c"Unsupported image format.\00", align 1

; Function Attrs: mustprogress nounwind ssp uwtable
define linkonce_odr noundef ptr @_ZNKSt12__shared_ptrIN6open3d8geometry5ImageELN9__gnu_cxx12_Lock_policyE2EE3getEv(ptr noundef nonnull align 8 dereferenceable(16) %0) #1 comdat align 2 {
  %2 = alloca ptr, align 8
  store ptr %0, ptr %2, align 8, !tbaa !61
  %3 = load ptr, ptr %2, align 8
  %4 = getelementptr inbounds nuw %"class.std::__shared_ptr.5", ptr %3, i32 0, i32 0
  %5 = load ptr, ptr %4, align 8, !tbaa !401
  ret ptr %5
}

; Function Attrs: mustprogress nounwind ssp uwtable
define linkonce_odr noundef ptr @_ZNKSt19__shared_ptr_accessIN6open3d8geometry5ImageELN9__gnu_cxx12_Lock_policyE2ELb0ELb0EE6_M_getEv(ptr noundef nonnull align 1 dereferenceable(1) %0) #1 comdat align 2 {
  %2 = alloca ptr, align 8
  store ptr %0, ptr %2, align 8, !tbaa !59
  %3 = load ptr, ptr %2, align 8
  %4 = call noundef ptr @_ZNKSt12__shared_ptrIN6open3d8geometry5ImageELN9__gnu_cxx12_Lock_policyE2EE3getEv(ptr noundef nonnull align 8 dereferenceable(16) %3) #25
  ret ptr %4
}

; Function Attrs: mustprogress nounwind ssp uwtable
define linkonce_odr noundef nonnull align 8 dereferenceable(88) ptr @_ZNKSt19__shared_ptr_accessIN6open3d8geometry5ImageELN9__gnu_cxx12_Lock_policyE2ELb0ELb0EEdeEv(ptr noundef nonnull align 1 dereferenceable(1) %0) #1 comdat align 2 {
  %2 = alloca ptr, align 8
  store ptr %0, ptr %2, align 8, !tbaa !59
  %3 = load ptr, ptr %2, align 8
  br label %4

4:                                                ; preds = %1
  br label %5

5:                                                ; preds = %4
  br label %6

6:                                                ; preds = %5
  %7 = call noundef ptr @_ZNKSt19__shared_ptr_accessIN6open3d8geometry5ImageELN9__gnu_cxx12_Lock_policyE2ELb0ELb0EE6_M_getEv(ptr noundef nonnull align 1 dereferenceable(1) %3) #25
  ret ptr %7
}

; Function Attrs: mustprogress ssp uwtable
define void @_ZN6open3d8geometry10PointCloud20CreateFromDepthImageERKNS0_5ImageERKNS_6camera22PinholeCameraIntrinsicERKN5Eigen6MatrixIdLi4ELi4ELi0ELi4ELi4EEEddib(ptr dead_on_unwind noalias writable sret(%"class.std::shared_ptr") align 8 %0, ptr noundef nonnull align 8 dereferenceable(88) %1, ptr noundef nonnull align 8 dereferenceable(88) %2, ptr noundef nonnull align 16 dereferenceable(128) %3, double noundef %4, double noundef %5, i32 noundef %6, i1 noundef zeroext %7) #3 align 2 personality ptr @__gxx_personality_v0 {
  %9 = alloca ptr, align 8
  %10 = alloca ptr, align 8
  %11 = alloca ptr, align 8
  %12 = alloca ptr, align 8
  %13 = alloca double, align 8
  %14 = alloca double, align 8
  %15 = alloca i32, align 4
  %16 = alloca i8, align 1
  %17 = alloca %"class.std::shared_ptr.4", align 8
  %18 = alloca ptr, align 8
  %19 = alloca i32, align 4
  store ptr %0, ptr %9, align 8
  store ptr %1, ptr %10, align 8, !tbaa !19
  store ptr %2, ptr %11, align 8, !tbaa !21
  store ptr %3, ptr %12, align 8, !tbaa !23
  store double %4, ptr %13, align 8, !tbaa !25
  store double %5, ptr %14, align 8, !tbaa !25
  store i32 %6, ptr %15, align 4, !tbaa !27
  %20 = zext i1 %7 to i8
  store i8 %20, ptr %16, align 1, !tbaa !29
  %21 = load ptr, ptr %10, align 8, !tbaa !19
  %22 = getelementptr inbounds nuw %"class.open3d::geometry::Image", ptr %21, i32 0, i32 3
  %23 = load i32, ptr %22, align 8, !tbaa !31
  %24 = icmp eq i32 %23, 1
  br i1 %24, label %25, label %59

25:                                               ; preds = %8
  %26 = load ptr, ptr %10, align 8, !tbaa !19
  %27 = getelementptr inbounds nuw %"class.open3d::geometry::Image", ptr %26, i32 0, i32 4
  %28 = load i32, ptr %27, align 4, !tbaa !44
  %29 = icmp eq i32 %28, 2
  br i1 %29, label %30, label %45

30:                                               ; preds = %25
  call void @llvm.lifetime.start.p0(i64 16, ptr %17) #25
  %31 = load ptr, ptr %10, align 8, !tbaa !19
  %32 = load double, ptr %13, align 8, !tbaa !25
  %33 = load double, ptr %14, align 8, !tbaa !25
  call void @_ZNK6open3d8geometry5Image24ConvertDepthToFloatImageEdd(ptr dead_on_unwind writable sret(%"class.std::shared_ptr.4") align 8 %17, ptr noundef nonnull align 8 dereferenceable(88) %31, double noundef %32, double noundef %33)
  %34 = call noundef nonnull align 8 dereferenceable(88) ptr @_ZNKSt19__shared_ptr_accessIN6open3d8geometry5ImageELN9__gnu_cxx12_Lock_policyE2ELb0ELb0EEdeEv(ptr noundef nonnull align 1 dereferenceable(1) %17) #25
  %35 = load ptr, ptr %11, align 8, !tbaa !21
  %36 = load ptr, ptr %12, align 8, !tbaa !23
  %37 = load i32, ptr %15, align 4, !tbaa !27
  %38 = load i8, ptr %16, align 1, !tbaa !29, !range !45, !noundef !46
  %39 = trunc i8 %38 to i1
  invoke void @_ZN6open3d12_GLOBAL__N_135CreatePointCloudFromFloatDepthImageERKNS_8geometry5ImageERKNS_6camera22PinholeCameraIntrinsicERKN5Eigen6MatrixIdLi4ELi4ELi0ELi4ELi4EEEib(ptr dead_on_unwind writable sret(%"class.std::shared_ptr") align 8 %0, ptr noundef nonnull align 8 dereferenceable(88) %34, ptr noundef nonnull align 8 dereferenceable(88) %35, ptr noundef nonnull align 16 dereferenceable(128) %36, i32 noundef %37, i1 noundef zeroext %39)
          to label %40 unwind label %41

40:                                               ; preds = %30
  call void @_ZNSt12__shared_ptrIN6open3d8geometry5ImageELN9__gnu_cxx12_Lock_policyE2EED2Ev(ptr noundef nonnull align 8 dereferenceable(16) %17) #25
  call void @llvm.lifetime.end.p0(i64 16, ptr %17) #25
  br label %60

41:                                               ; preds = %30
  %42 = landingpad { ptr, i32 }
          cleanup
  %43 = extractvalue { ptr, i32 } %42, 0
  store ptr %43, ptr %18, align 8
  %44 = extractvalue { ptr, i32 } %42, 1
  store i32 %44, ptr %19, align 4
  call void @_ZNSt12__shared_ptrIN6open3d8geometry5ImageELN9__gnu_cxx12_Lock_policyE2EED2Ev(ptr noundef nonnull align 8 dereferenceable(16) %17) #25
  call void @llvm.lifetime.end.p0(i64 16, ptr %17) #25
  br label %61

45:                                               ; preds = %25
  %46 = load ptr, ptr %10, align 8, !tbaa !19
  %47 = getelementptr inbounds nuw %"class.open3d::geometry::Image", ptr %46, i32 0, i32 4
  %48 = load i32, ptr %47, align 4, !tbaa !44
  %49 = icmp eq i32 %48, 4
  br i1 %49, label %50, label %57

50:                                               ; preds = %45
  %51 = load ptr, ptr %10, align 8, !tbaa !19
  %52 = load ptr, ptr %11, align 8, !tbaa !21
  %53 = load ptr, ptr %12, align 8, !tbaa !23
  %54 = load i32, ptr %15, align 4, !tbaa !27
  %55 = load i8, ptr %16, align 1, !tbaa !29, !range !45, !noundef !46
  %56 = trunc i8 %55 to i1
  call void @_ZN6open3d12_GLOBAL__N_135CreatePointCloudFromFloatDepthImageERKNS_8geometry5ImageERKNS_6camera22PinholeCameraIntrinsicERKN5Eigen6MatrixIdLi4ELi4ELi0ELi4ELi4EEEib(ptr dead_on_unwind writable sret(%"class.std::shared_ptr") align 8 %0, ptr noundef nonnull align 8 dereferenceable(88) %51, ptr noundef nonnull align 8 dereferenceable(88) %52, ptr noundef nonnull align 16 dereferenceable(128) %53, i32 noundef %54, i1 noundef zeroext %56)
  br label %60

57:                                               ; preds = %45
  br label %58

58:                                               ; preds = %57
  br label %59

59:                                               ; preds = %58, %8
  call void @_ZN6open3d7utility6Logger9LogError_IJEEEvPKciS4_S4_DpOT_(ptr noundef @.str, i32 noundef 151, ptr noundef @__PRETTY_FUNCTION__._ZN6open3d8geometry10PointCloud20CreateFromDepthImageERKNS0_5ImageERKNS_6camera22PinholeCameraIntrinsicERKN5Eigen6MatrixIdLi4ELi4ELi0ELi4ELi4EEEddib, ptr noundef @.str.3) #26
  unreachable

60:                                               ; preds = %50, %40
  ret void

61:                                               ; preds = %41
  %62 = load ptr, ptr %18, align 8
  %63 = load i32, ptr %19, align 4
  %64 = insertvalue { ptr, i32 } poison, ptr %62, 0
  %65 = insertvalue { ptr, i32 } %64, i32 %63, 1
  resume { ptr, i32 } %65
}