; Function Attrs: mustprogress ssp uwtable
define void @_ZN6open3d8geometry10PointCloud20CreateFromDepthImageERKNS0_5ImageERKNS_6camera22PinholeCameraIntrinsicERKN5Eigen6MatrixIdLi4ELi4ELi0ELi4ELi4EEEddib(ptr dead_on_unwind noalias writable sret(%"class.std::shared_ptr") align 8 %0, ptr noundef nonnull align 8 dereferenceable(88) %1, ptr noundef nonnull readonly align 8 captures(none) dereferenceable(88) %2, ptr noundef nonnull readonly align 16 captures(none) dereferenceable(128) %3, double noundef %4, double noundef %5, i32 noundef %6, i1 noundef zeroext %7) local_unnamed_addr #1 align 2 personality ptr @__gxx_personality_v0 {
  %9 = alloca %"class.std::shared_ptr.4", align 8
  %10 = getelementptr inbounds nuw i8, ptr %1, i64 56
  %11 = load i32, ptr %10, align 8, !tbaa !4
  %12 = icmp eq i32 %11, 1
  br i1 %12, label %13, label %45

13:                                               ; preds = %8
  %14 = getelementptr inbounds nuw i8, ptr %1, i64 60
  %15 = load i32, ptr %14, align 4, !tbaa !21
  switch i32 %15, label %45 [
    i32 2, label %16
    i32 4, label %44
  ]

16:                                               ; preds = %13
  call void @llvm.lifetime.start.p0(i64 16, ptr nonnull %9) #17
  call void @_ZNK6open3d8geometry5Image24ConvertDepthToFloatImageEdd(ptr dead_on_unwind nonnull writable sret(%"class.std::shared_ptr.4") align 8 %9, ptr noundef nonnull align 8 dereferenceable(88) %1, double noundef %4, double noundef %5)
  %17 = load ptr, ptr %9, align 8, !tbaa !22
  invoke fastcc void @_ZN6open3d12_GLOBAL__N_135CreatePointCloudFromFloatDepthImageERKNS_8geometry5ImageERKNS_6camera22PinholeCameraIntrinsicERKN5Eigen6MatrixIdLi4ELi4ELi0ELi4ELi4EEEib(ptr dead_on_unwind noalias writable align 8 %0, ptr noundef nonnull align 8 dereferenceable(88) %17, ptr noundef nonnull align 8 dereferenceable(88) %2, ptr noundef nonnull align 16 dereferenceable(128) %3, i32 noundef %6, i1 noundef zeroext %7)
          to label %18 unwind label %42

18:                                               ; preds = %16
  %19 = getelementptr inbounds nuw i8, ptr %9, i64 8
  %20 = load ptr, ptr %19, align 8, !tbaa !27
  %.not.i.i = icmp eq ptr %20, null
  br i1 %.not.i.i, label %_ZNSt12__shared_ptrIN6open3d8geometry5ImageELN9__gnu_cxx12_Lock_policyE2EED2Ev.exit, label %21

21:                                               ; preds = %18
  %22 = getelementptr inbounds nuw i8, ptr %20, i64 8
  %23 = load atomic i64, ptr %22 acquire, align 8
  %24 = icmp eq i64 %23, 4294967297
  %25 = trunc i64 %23 to i32
  br i1 %24, label %26, label %34

26:                                               ; preds = %21
  store i32 0, ptr %22, align 8, !tbaa !28
  %27 = getelementptr inbounds nuw i8, ptr %20, i64 12
  store i32 0, ptr %27, align 4, !tbaa !30
  %28 = load ptr, ptr %20, align 8, !tbaa !31
  %29 = getelementptr inbounds nuw i8, ptr %28, i64 16
  %30 = load ptr, ptr %29, align 8
  call void %30(ptr noundef nonnull align 8 dereferenceable(16) %20) #17
  %31 = load ptr, ptr %20, align 8, !tbaa !31
  %32 = getelementptr inbounds nuw i8, ptr %31, i64 24
  %33 = load ptr, ptr %32, align 8
  call void %33(ptr noundef nonnull align 8 dereferenceable(16) %20) #17
  br label %_ZNSt12__shared_ptrIN6open3d8geometry5ImageELN9__gnu_cxx12_Lock_policyE2EED2Ev.exit

34:                                               ; preds = %21
  %35 = load i8, ptr @__libc_single_threaded, align 1, !tbaa !33
  %.not.i.i.i = icmp eq i8 %35, 0
  br i1 %.not.i.i.i, label %38, label %36

36:                                               ; preds = %34
  %37 = add nsw i32 %25, -1
  store i32 %37, ptr %22, align 4, !tbaa !34
  br label %_ZN9__gnu_cxx27__exchange_and_add_dispatchEPii.exit.i.i.i

38:                                               ; preds = %34
  %39 = atomicrmw volatile add ptr %22, i32 -1 acq_rel, align 4
  br label %_ZN9__gnu_cxx27__exchange_and_add_dispatchEPii.exit.i.i.i

_ZN9__gnu_cxx27__exchange_and_add_dispatchEPii.exit.i.i.i: ; preds = %38, %36
  %.0.i.i.i.i = phi i32 [ %25, %36 ], [ %39, %38 ]
  %40 = icmp eq i32 %.0.i.i.i.i, 1
  br i1 %40, label %41, label %_ZNSt12__shared_ptrIN6open3d8geometry5ImageELN9__gnu_cxx12_Lock_policyE2EED2Ev.exit, !prof !35

41:                                               ; preds = %_ZN9__gnu_cxx27__exchange_and_add_dispatchEPii.exit.i.i.i
  call void @_ZNSt16_Sp_counted_baseILN9__gnu_cxx12_Lock_policyE2EE24_M_release_last_use_coldEv(ptr noundef nonnull align 8 dereferenceable(16) %20) #17
  br label %_ZNSt12__shared_ptrIN6open3d8geometry5ImageELN9__gnu_cxx12_Lock_policyE2EED2Ev.exit

_ZNSt12__shared_ptrIN6open3d8geometry5ImageELN9__gnu_cxx12_Lock_policyE2EED2Ev.exit: ; preds = %18, %26, %_ZN9__gnu_cxx27__exchange_and_add_dispatchEPii.exit.i.i.i, %41
  call void @llvm.lifetime.end.p0(i64 16, ptr nonnull %9) #17
  br label %46

42:                                               ; preds = %16
  %43 = landingpad { ptr, i32 }
          cleanup
  call void @_ZNSt12__shared_ptrIN6open3d8geometry5ImageELN9__gnu_cxx12_Lock_policyE2EED2Ev(ptr noundef nonnull align 8 dereferenceable(16) %9) #17
  call void @llvm.lifetime.end.p0(i64 16, ptr nonnull %9) #17
  resume { ptr, i32 } %43

44:                                               ; preds = %13
  tail call fastcc void @_ZN6open3d12_GLOBAL__N_135CreatePointCloudFromFloatDepthImageERKNS_8geometry5ImageERKNS_6camera22PinholeCameraIntrinsicERKN5Eigen6MatrixIdLi4ELi4ELi0ELi4ELi4EEEib(ptr dead_on_unwind noalias writable align 8 %0, ptr noundef nonnull align 8 dereferenceable(88) %1, ptr noundef nonnull align 8 dereferenceable(88) %2, ptr noundef nonnull align 16 dereferenceable(128) %3, i32 noundef %6, i1 noundef zeroext %7)
  br label %46

45:                                               ; preds = %13, %8
  tail call void @_ZN6open3d7utility6Logger9LogError_IJEEEvPKciS4_S4_DpOT_(ptr noundef nonnull @.str, i32 noundef 151, ptr noundef nonnull @__PRETTY_FUNCTION__._ZN6open3d8geometry10PointCloud20CreateFromDepthImageERKNS0_5ImageERKNS_6camera22PinholeCameraIntrinsicERKN5Eigen6MatrixIdLi4ELi4ELi0ELi4ELi4EEEddib, ptr noundef nonnull @.str.3) #18
  unreachable

46:                                               ; preds = %44, %_ZNSt12__shared_ptrIN6open3d8geometry5ImageELN9__gnu_cxx12_Lock_policyE2EED2Ev.exit
  ret void
}